target datalayout = "e-m:e-p270:32:32-p271:32:32-p272:64:64-i64:64-i128:128-f80:128-n8:16:32:64-S128"
target triple = "x86_64-pc-linux-gnu"

%class.Filter = type { ptr, %"class.std::bitset" }
%"class.std::bitset" = type { %"struct.std::_Base_bitset" }
%"struct.std::_Base_bitset" = type { i64 }
%class.ChooseRandomTypeFilter = type { %class.Filter, i8, i8, ptr }

@_ZTV22ChooseRandomTypeFilter = dso_local unnamed_addr constant { [5 x ptr] } { [5 x ptr] [ptr null, ptr @_ZTI22ChooseRandomTypeFilter, ptr @_ZN22ChooseRandomTypeFilterD1Ev, ptr @_ZN22ChooseRandomTypeFilterD0Ev, ptr @_ZNK22ChooseRandomTypeFilter6filterEi] }, align 8

; Function Attrs: mustprogress uwtable
define dso_local void @_ZN22ChooseRandomTypeFilterC2Ebb(ptr noundef nonnull align 8 dereferenceable(32) %0, i1 noundef zeroext %1, i1 noundef zeroext %2) unnamed_addr #5 align 2 {
  %4 = alloca ptr, align 8
  %5 = alloca i8, align 1
  %6 = alloca i8, align 1
  store ptr %0, ptr %4, align 8
  %7 = zext i1 %1 to i8
  store i8 %7, ptr %5, align 1
  %8 = zext i1 %2 to i8
  store i8 %8, ptr %6, align 1
  %9 = load ptr, ptr %4, align 8
  call void @_ZN6FilterC2Ev(ptr noundef nonnull align 8 dereferenceable(16) %9)
  store ptr getelementptr inbounds ({ [5 x ptr] }, ptr @_ZTV22ChooseRandomTypeFilter, i32 0, i32 0, i32 2), ptr %9, align 8
  %10 = getelementptr inbounds %class.ChooseRandomTypeFilter, ptr %9, i32 0, i32 1
  %11 = load i8, ptr %5, align 1
  %12 = trunc i8 %11 to i1
  %13 = zext i1 %12 to i8
  store i8 %13, ptr %10, align 8
  %14 = getelementptr inbounds %class.ChooseRandomTypeFilter, ptr %9, i32 0, i32 2
  %15 = load i8, ptr %6, align 1
  %16 = trunc i8 %15 to i1
  %17 = zext i1 %16 to i8
  store i8 %17, ptr %14, align 1
  %18 = getelementptr inbounds %class.ChooseRandomTypeFilter, ptr %9, i32 0, i32 3
  store ptr null, ptr %18, align 8
  ret void
}