; Function Attrs: mustprogress uwtable
define dso_local void @_ZN22ChooseRandomTypeFilterC2Ebb(ptr noundef nonnull align 8 dereferenceable(32) %0, i1 noundef zeroext %1, i1 noundef zeroext %2) unnamed_addr #4 align 2 {
  %4 = zext i1 %1 to i8
  %5 = zext i1 %2 to i8
  tail call void @_ZN6FilterC2Ev(ptr noundef nonnull align 8 dereferenceable(16) %0)
  store ptr getelementptr inbounds ({ [5 x ptr] }, ptr @_ZTV22ChooseRandomTypeFilter, i64 0, i32 0, i64 2), ptr %0, align 8
  %6 = getelementptr inbounds i8, ptr %0, i64 16
  store i8 %4, ptr %6, align 8
  %7 = getelementptr inbounds i8, ptr %0, i64 17
  store i8 %5, ptr %7, align 1
  %8 = getelementptr inbounds i8, ptr %0, i64 24
  store ptr null, ptr %8, align 8
  ret void
}